; Function Attrs: nounwind uwtable
define noalias nonnull ptr @l_Lake_instToJsonLog(ptr noundef %0) local_unnamed_addr #1 {
  %2 = getelementptr i8, ptr %0, i64 8
  %.val.i = load i64, ptr %2, align 8, !tbaa !16
  %3 = tail call ptr @l_Array_mapMUnsafe_map___at_Lake_instToJsonLog___spec__2(i64 noundef %.val.i, i64 noundef 0, ptr noundef %0)
  tail call void @lean_inc_heartbeat() #9
  %4 = tail call noalias ptr @mi_malloc_small(i64 noundef 16) #9
  %5 = icmp eq ptr %4, null
  br i1 %5, label %6, label %l_Array_toJson___at_Lake_instToJsonLog___spec__1.exit

6:                                                ; preds = %1
  tail call void @lean_internal_panic_out_of_memory() #10
  unreachable

l_Array_toJson___at_Lake_instToJsonLog___spec__1.exit: ; preds = %1
  %7 = getelementptr inbounds nuw i8, ptr %4, i64 4
  store i32 1, ptr %4, align 4, !tbaa !4
  store i32 67174416, ptr %7, align 4
  %8 = getelementptr inbounds nuw i8, ptr %4, i64 8
  store ptr %3, ptr %8, align 8, !tbaa !10
  ret ptr %4
}